target datalayout = "e-m:e-p270:32:32-p271:32:32-p272:64:64-i64:64-i128:128-f80:128-n8:16:32:64-S128"
target triple = "x86_64-pc-linux-gnu"

%struct.LZ4F_CustomMem = type { ptr, ptr, ptr, ptr }
%struct.LZ4F_preferences_t = type { %struct.LZ4F_frameInfo_t, i32, i32, i32, [3 x i32] }
%struct.LZ4F_frameInfo_t = type { i32, i32, i32, i32, i64, i32, i32 }
%struct.LZ4F_cctx_s = type { %struct.LZ4F_CustomMem, %struct.LZ4F_preferences_t, i32, i32, ptr, i64, i64, ptr, ptr, i64, i64, %struct.XXH32_state_s, ptr, i16, i16, i32 }
%struct.XXH32_state_s = type { i32, i32, i32, i32, i32, i32, [4 x i32], i32, i32 }

; Function Attrs: nounwind uwtable
define internal void @LZ4F_writeLE32(ptr noundef %0, i32 noundef %1) #0 {
  %3 = alloca ptr, align 8
  %4 = alloca i32, align 4
  %5 = alloca ptr, align 8
  store ptr %0, ptr %3, align 8, !tbaa !12
  store i32 %1, ptr %4, align 4, !tbaa !10
  call void @llvm.lifetime.start.p0(i64 8, ptr %5) #8
  %6 = load ptr, ptr %3, align 8, !tbaa !12
  store ptr %6, ptr %5, align 8, !tbaa !7
  %7 = load i32, ptr %4, align 4, !tbaa !10
  %8 = trunc i32 %7 to i8
  %9 = load ptr, ptr %5, align 8, !tbaa !7
  %10 = getelementptr inbounds i8, ptr %9, i64 0
  store i8 %8, ptr %10, align 1, !tbaa !16
  %11 = load i32, ptr %4, align 4, !tbaa !10
  %12 = lshr i32 %11, 8
  %13 = trunc i32 %12 to i8
  %14 = load ptr, ptr %5, align 8, !tbaa !7
  %15 = getelementptr inbounds i8, ptr %14, i64 1
  store i8 %13, ptr %15, align 1, !tbaa !16
  %16 = load i32, ptr %4, align 4, !tbaa !10
  %17 = lshr i32 %16, 16
  %18 = trunc i32 %17 to i8
  %19 = load ptr, ptr %5, align 8, !tbaa !7
  %20 = getelementptr inbounds i8, ptr %19, i64 2
  store i8 %18, ptr %20, align 1, !tbaa !16
  %21 = load i32, ptr %4, align 4, !tbaa !10
  %22 = lshr i32 %21, 24
  %23 = trunc i32 %22 to i8
  %24 = load ptr, ptr %5, align 8, !tbaa !7
  %25 = getelementptr inbounds i8, ptr %24, i64 3
  store i8 %23, ptr %25, align 1, !tbaa !16
  call void @llvm.lifetime.end.p0(i64 8, ptr %5) #8
  ret void
}

; Function Attrs: nounwind uwtable
define internal i64 @LZ4F_returnErrorCode(i32 noundef %0) #0 {
  %2 = alloca i32, align 4
  store i32 %0, ptr %2, align 4, !tbaa !10
  %3 = load i32, ptr %2, align 4, !tbaa !10
  %4 = zext i32 %3 to i64
  %5 = sub nsw i64 0, %4
  ret i64 %5
}

; Function Attrs: nounwind uwtable
define i32 @LZ4F_isError(i64 noundef %0) #0 {
  %2 = alloca i64, align 8
  store i64 %0, ptr %2, align 8, !tbaa !3
  %3 = load i64, ptr %2, align 8, !tbaa !3
  %4 = icmp ugt i64 %3, -24
  %5 = zext i1 %4 to i32
  ret i32 %5
}

; Function Attrs: nounwind uwtable
define i64 @LZ4F_compressEnd(ptr noundef %0, ptr noundef %1, i64 noundef %2, ptr noundef %3) #0 {
  %5 = alloca i64, align 8
  %6 = alloca ptr, align 8
  %7 = alloca ptr, align 8
  %8 = alloca i64, align 8
  %9 = alloca ptr, align 8
  %10 = alloca ptr, align 8
  %11 = alloca ptr, align 8
  %12 = alloca i64, align 8
  %13 = alloca i32, align 4
  %14 = alloca i32, align 4
  store ptr %0, ptr %6, align 8, !tbaa !23
  store ptr %1, ptr %7, align 8, !tbaa !12
  store i64 %2, ptr %8, align 8, !tbaa !3
  store ptr %3, ptr %9, align 8, !tbaa !12
  call void @llvm.lifetime.start.p0(i64 8, ptr %10) #8
  %15 = load ptr, ptr %7, align 8, !tbaa !12
  store ptr %15, ptr %10, align 8, !tbaa !7
  call void @llvm.lifetime.start.p0(i64 8, ptr %11) #8
  %16 = load ptr, ptr %10, align 8, !tbaa !7
  store ptr %16, ptr %11, align 8, !tbaa !7
  call void @llvm.lifetime.start.p0(i64 8, ptr %12) #8
  %17 = load ptr, ptr %6, align 8, !tbaa !23
  %18 = load ptr, ptr %7, align 8, !tbaa !12
  %19 = load i64, ptr %8, align 8, !tbaa !3
  %20 = load ptr, ptr %9, align 8, !tbaa !12
  %21 = call i64 @LZ4F_flush(ptr noundef %17, ptr noundef %18, i64 noundef %19, ptr noundef %20)
  store i64 %21, ptr %12, align 8, !tbaa !3
  br label %22

22:                                               ; preds = %4
  %23 = load i64, ptr %12, align 8, !tbaa !3
  %24 = call i32 @LZ4F_isError(i64 noundef %23)
  %25 = icmp ne i32 %24, 0
  br i1 %25, label %26, label %28

26:                                               ; preds = %22
  %27 = load i64, ptr %12, align 8, !tbaa !3
  store i64 %27, ptr %5, align 8
  store i32 1, ptr %13, align 4
  br label %101

28:                                               ; preds = %22
  br label %29

29:                                               ; preds = %28
  br label %30

30:                                               ; preds = %29
  %31 = load i64, ptr %12, align 8, !tbaa !3
  %32 = load ptr, ptr %11, align 8, !tbaa !7
  %33 = getelementptr inbounds nuw i8, ptr %32, i64 %31
  store ptr %33, ptr %11, align 8, !tbaa !7
  %34 = load i64, ptr %12, align 8, !tbaa !3
  %35 = load i64, ptr %8, align 8, !tbaa !3
  %36 = sub i64 %35, %34
  store i64 %36, ptr %8, align 8, !tbaa !3
  br label %37

37:                                               ; preds = %30
  %38 = load i64, ptr %8, align 8, !tbaa !3
  %39 = icmp ult i64 %38, 4
  br i1 %39, label %40, label %42

40:                                               ; preds = %37
  %41 = call i64 @LZ4F_returnErrorCode(i32 noundef 11)
  store i64 %41, ptr %5, align 8
  store i32 1, ptr %13, align 4
  br label %101

42:                                               ; preds = %37
  br label %43

43:                                               ; preds = %42
  br label %44

44:                                               ; preds = %43
  %45 = load ptr, ptr %11, align 8, !tbaa !7
  call void @LZ4F_writeLE32(ptr noundef %45, i32 noundef 0)
  %46 = load ptr, ptr %11, align 8, !tbaa !7
  %47 = getelementptr inbounds i8, ptr %46, i64 4
  store ptr %47, ptr %11, align 8, !tbaa !7
  %48 = load ptr, ptr %6, align 8, !tbaa !23
  %49 = getelementptr inbounds nuw %struct.LZ4F_cctx_s, ptr %48, i32 0, i32 1
  %50 = getelementptr inbounds nuw %struct.LZ4F_preferences_t, ptr %49, i32 0, i32 0
  %51 = getelementptr inbounds nuw %struct.LZ4F_frameInfo_t, ptr %50, i32 0, i32 2
  %52 = load i32, ptr %51, align 8, !tbaa !33
  %53 = icmp eq i32 %52, 1
  br i1 %53, label %54, label %73

54:                                               ; preds = %44
  call void @llvm.lifetime.start.p0(i64 4, ptr %14) #8
  %55 = load ptr, ptr %6, align 8, !tbaa !23
  %56 = getelementptr inbounds nuw %struct.LZ4F_cctx_s, ptr %55, i32 0, i32 11
  %57 = call i32 @LZ4_XXH32_digest(ptr noundef %56)
  store i32 %57, ptr %14, align 4, !tbaa !10
  br label %58

58:                                               ; preds = %54
  %59 = load i64, ptr %8, align 8, !tbaa !3
  %60 = icmp ult i64 %59, 8
  br i1 %60, label %61, label %63

61:                                               ; preds = %58
  %62 = call i64 @LZ4F_returnErrorCode(i32 noundef 11)
  store i64 %62, ptr %5, align 8
  store i32 1, ptr %13, align 4
  br label %70

63:                                               ; preds = %58
  br label %64

64:                                               ; preds = %63
  br label %65

65:                                               ; preds = %64
  %66 = load ptr, ptr %11, align 8, !tbaa !7
  %67 = load i32, ptr %14, align 4, !tbaa !10
  call void @LZ4F_writeLE32(ptr noundef %66, i32 noundef %67)
  %68 = load ptr, ptr %11, align 8, !tbaa !7
  %69 = getelementptr inbounds i8, ptr %68, i64 4
  store ptr %69, ptr %11, align 8, !tbaa !7
  store i32 0, ptr %13, align 4
  br label %70

70:                                               ; preds = %65, %61
  call void @llvm.lifetime.end.p0(i64 4, ptr %14) #8
  %71 = load i32, ptr %13, align 4
  switch i32 %71, label %101 [
    i32 0, label %72
  ]

72:                                               ; preds = %70
  br label %73

73:                                               ; preds = %72, %44
  %74 = load ptr, ptr %6, align 8, !tbaa !23
  %75 = getelementptr inbounds nuw %struct.LZ4F_cctx_s, ptr %74, i32 0, i32 3
  store i32 0, ptr %75, align 4, !tbaa !38
  %76 = load ptr, ptr %6, align 8, !tbaa !23
  %77 = getelementptr inbounds nuw %struct.LZ4F_cctx_s, ptr %76, i32 0, i32 1
  %78 = getelementptr inbounds nuw %struct.LZ4F_preferences_t, ptr %77, i32 0, i32 0
  %79 = getelementptr inbounds nuw %struct.LZ4F_frameInfo_t, ptr %78, i32 0, i32 4
  %80 = load i64, ptr %79, align 8, !tbaa !39
  %81 = icmp ne i64 %80, 0
  br i1 %81, label %82, label %95

82:                                               ; preds = %73
  %83 = load ptr, ptr %6, align 8, !tbaa !23
  %84 = getelementptr inbounds nuw %struct.LZ4F_cctx_s, ptr %83, i32 0, i32 1
  %85 = getelementptr inbounds nuw %struct.LZ4F_preferences_t, ptr %84, i32 0, i32 0
  %86 = getelementptr inbounds nuw %struct.LZ4F_frameInfo_t, ptr %85, i32 0, i32 4
  %87 = load i64, ptr %86, align 8, !tbaa !39
  %88 = load ptr, ptr %6, align 8, !tbaa !23
  %89 = getelementptr inbounds nuw %struct.LZ4F_cctx_s, ptr %88, i32 0, i32 10
  %90 = load i64, ptr %89, align 8, !tbaa !40
  %91 = icmp ne i64 %87, %90
  br i1 %91, label %92, label %94

92:                                               ; preds = %82
  %93 = call i64 @LZ4F_returnErrorCode(i32 noundef 14)
  store i64 %93, ptr %5, align 8
  store i32 1, ptr %13, align 4
  br label %101

94:                                               ; preds = %82
  br label %95

95:                                               ; preds = %94, %73
  %96 = load ptr, ptr %11, align 8, !tbaa !7
  %97 = load ptr, ptr %10, align 8, !tbaa !7
  %98 = ptrtoint ptr %96 to i64
  %99 = ptrtoint ptr %97 to i64
  %100 = sub i64 %98, %99
  store i64 %100, ptr %5, align 8
  store i32 1, ptr %13, align 4
  br label %101

101:                                              ; preds = %95, %92, %70, %40, %26
  call void @llvm.lifetime.end.p0(i64 8, ptr %12) #8
  call void @llvm.lifetime.end.p0(i64 8, ptr %11) #8
  call void @llvm.lifetime.end.p0(i64 8, ptr %10) #8
  %102 = load i64, ptr %5, align 8
  ret i64 %102
}