; Function Attrs: nounwind uwtable
define i64 @LZ4F_compressEnd(ptr noundef %0, ptr noundef %1, i64 noundef %2, ptr noundef readnone captures(none) %3) local_unnamed_addr #5 {
  %5 = tail call i64 @LZ4F_flush(ptr noundef %0, ptr noundef %1, i64 noundef %2, ptr poison)
  %6 = icmp ult i64 %5, -23
  br i1 %6, label %7, label %42

7:                                                ; preds = %4
  %8 = sub i64 %2, %5
  %9 = icmp ult i64 %8, 4
  br i1 %9, label %42, label %10

10:                                               ; preds = %7
  %11 = getelementptr inbounds nuw i8, ptr %1, i64 %5
  %12 = getelementptr inbounds nuw i8, ptr %11, i64 4
  %13 = getelementptr inbounds nuw i8, ptr %0, i64 40
  store i32 0, ptr %11, align 1
  %14 = load i32, ptr %13, align 8, !tbaa !26
  %15 = icmp eq i32 %14, 1
  br i1 %15, label %16, label %31

16:                                               ; preds = %10
  %17 = getelementptr inbounds nuw i8, ptr %0, i64 152
  %18 = tail call i32 @LZ4_XXH32_digest(ptr noundef nonnull %17) #13
  %19 = icmp ugt i64 %8, 7
  br i1 %19, label %.thread, label %42

.thread:                                          ; preds = %16
  %20 = trunc i32 %18 to i8
  store i8 %20, ptr %12, align 1, !tbaa !18
  %21 = lshr i32 %18, 8
  %22 = trunc i32 %21 to i8
  %23 = getelementptr inbounds nuw i8, ptr %11, i64 5
  store i8 %22, ptr %23, align 1, !tbaa !18
  %24 = lshr i32 %18, 16
  %25 = trunc i32 %24 to i8
  %26 = getelementptr inbounds nuw i8, ptr %11, i64 6
  store i8 %25, ptr %26, align 1, !tbaa !18
  %27 = lshr i32 %18, 24
  %28 = trunc nuw i32 %27 to i8
  %29 = getelementptr inbounds nuw i8, ptr %11, i64 7
  store i8 %28, ptr %29, align 1, !tbaa !18
  %30 = getelementptr inbounds nuw i8, ptr %11, i64 8
  br label %31

31:                                               ; preds = %.thread, %10
  %.029 = phi ptr [ %12, %10 ], [ %30, %.thread ]
  %32 = getelementptr inbounds nuw i8, ptr %0, i64 92
  store i32 0, ptr %32, align 4, !tbaa !32
  %33 = getelementptr inbounds nuw i8, ptr %0, i64 48
  %34 = load i64, ptr %33, align 8, !tbaa !33
  %.not33 = icmp eq i64 %34, 0
  br i1 %.not33, label %38, label %35

35:                                               ; preds = %31
  %36 = getelementptr inbounds nuw i8, ptr %0, i64 144
  %37 = load i64, ptr %36, align 8, !tbaa !34
  %.not34 = icmp eq i64 %34, %37
  br i1 %.not34, label %38, label %42

38:                                               ; preds = %35, %31
  %39 = ptrtoint ptr %.029 to i64
  %40 = ptrtoint ptr %1 to i64
  %41 = sub i64 %39, %40
  br label %42

42:                                               ; preds = %35, %16, %7, %4, %38
  %.0 = phi i64 [ %41, %38 ], [ %5, %4 ], [ -11, %7 ], [ -11, %16 ], [ -14, %35 ]
  ret i64 %.0
}